target datalayout = "e-m:e-p270:32:32-p271:32:32-p272:64:64-i64:64-i128:128-f80:128-n8:16:32:64-S128"
target triple = "x86_64-pc-linux-gnu"

; Function Attrs: nounwind uwtable
define dso_local i32 @prefixmatch(ptr noundef %0, i32 noundef %1, ptr noundef %2, i32 noundef %3, i32 noundef %4) #0 {
  %6 = alloca i32, align 4
  %7 = alloca ptr, align 8
  %8 = alloca i32, align 4
  %9 = alloca ptr, align 8
  %10 = alloca i32, align 4
  %11 = alloca i32, align 4
  %12 = alloca i32, align 4
  %13 = alloca i32, align 4
  %14 = alloca i32, align 4
  %15 = alloca i32, align 4
  store ptr %0, ptr %7, align 8, !tbaa !5
  store i32 %1, ptr %8, align 4, !tbaa !10
  store ptr %2, ptr %9, align 8, !tbaa !5
  store i32 %3, ptr %10, align 4, !tbaa !10
  store i32 %4, ptr %11, align 4, !tbaa !10
  call void @llvm.lifetime.start.p0(i64 4, ptr %12) #13
  store i32 0, ptr %12, align 4, !tbaa !10
  %16 = load ptr, ptr %7, align 8, !tbaa !5
  %17 = load i32, ptr %8, align 4, !tbaa !10
  %18 = load ptr, ptr %9, align 8, !tbaa !5
  %19 = load i32, ptr %10, align 4, !tbaa !10
  %20 = load i32, ptr %11, align 4, !tbaa !10
  %21 = call i32 @stringmatchlen_impl(ptr noundef %16, i32 noundef %17, ptr noundef %18, i32 noundef %19, i32 noundef %20, ptr noundef %12, i32 noundef 0)
  %22 = icmp ne i32 %21, 0
  br i1 %22, label %24, label %23

23:                                               ; preds = %5
  store i32 0, ptr %6, align 4
  store i32 1, ptr %13, align 4
  br label %66

24:                                               ; preds = %5
  %25 = load i32, ptr %8, align 4, !tbaa !10
  %26 = icmp eq i32 %25, 0
  br i1 %26, label %36, label %27

27:                                               ; preds = %24
  %28 = load ptr, ptr %7, align 8, !tbaa !5
  %29 = load i32, ptr %8, align 4, !tbaa !10
  %30 = sub nsw i32 %29, 1
  %31 = sext i32 %30 to i64
  %32 = getelementptr inbounds i8, ptr %28, i64 %31
  %33 = load i8, ptr %32, align 1, !tbaa !12
  %34 = sext i8 %33 to i32
  %35 = icmp ne i32 %34, 42
  br i1 %35, label %36, label %37

36:                                               ; preds = %27, %24
  store i32 0, ptr %6, align 4
  store i32 1, ptr %13, align 4
  br label %66

37:                                               ; preds = %27
  call void @llvm.lifetime.start.p0(i64 4, ptr %14) #13
  store i32 0, ptr %14, align 4, !tbaa !10
  call void @llvm.lifetime.start.p0(i64 4, ptr %15) #13
  %38 = load i32, ptr %8, align 4, !tbaa !10
  %39 = sub nsw i32 %38, 2
  store i32 %39, ptr %15, align 4, !tbaa !10
  br label %40

40:                                               ; preds = %57, %37
  %41 = load i32, ptr %15, align 4, !tbaa !10
  %42 = icmp sge i32 %41, 0
  br i1 %42, label %44, label %43

43:                                               ; preds = %40
  store i32 2, ptr %13, align 4
  br label %60

44:                                               ; preds = %40
  %45 = load ptr, ptr %7, align 8, !tbaa !5
  %46 = load i32, ptr %15, align 4, !tbaa !10
  %47 = sext i32 %46 to i64
  %48 = getelementptr inbounds i8, ptr %45, i64 %47
  %49 = load i8, ptr %48, align 1, !tbaa !12
  %50 = sext i8 %49 to i32
  %51 = icmp eq i32 %50, 92
  br i1 %51, label %52, label %55

52:                                               ; preds = %44
  %53 = load i32, ptr %14, align 4, !tbaa !10
  %54 = add nsw i32 %53, 1
  store i32 %54, ptr %14, align 4, !tbaa !10
  br label %56

55:                                               ; preds = %44
  store i32 2, ptr %13, align 4
  br label %60

56:                                               ; preds = %52
  br label %57

57:                                               ; preds = %56
  %58 = load i32, ptr %15, align 4, !tbaa !10
  %59 = add nsw i32 %58, -1
  store i32 %59, ptr %15, align 4, !tbaa !10
  br label %40, !llvm.loop !13

60:                                               ; preds = %55, %43
  call void @llvm.lifetime.end.p0(i64 4, ptr %15) #13
  br label %61

61:                                               ; preds = %60
  %62 = load i32, ptr %14, align 4, !tbaa !10
  %63 = srem i32 %62, 2
  %64 = icmp eq i32 %63, 0
  %65 = zext i1 %64 to i32
  store i32 %65, ptr %6, align 4
  store i32 1, ptr %13, align 4
  call void @llvm.lifetime.end.p0(i64 4, ptr %14) #13
  br label %66

66:                                               ; preds = %61, %36, %23
  call void @llvm.lifetime.end.p0(i64 4, ptr %12) #13
  %67 = load i32, ptr %6, align 4
  ret i32 %67
}