; Function Attrs: nofree nosync nounwind memory(readwrite, inaccessiblemem: none) uwtable
define dso_local range(i32 0, 2) i32 @prefixmatch(ptr noundef readonly captures(none) %0, i32 noundef %1, ptr noundef readonly captures(none) %2, i32 noundef %3, i32 noundef %4) local_unnamed_addr #0 {
  %6 = alloca i32, align 4
  call void @llvm.lifetime.start.p0(i64 4, ptr nonnull %6) #29
  store i32 0, ptr %6, align 4, !tbaa !5
  %7 = call fastcc i32 @stringmatchlen_impl(ptr noundef %0, i32 noundef %1, ptr noundef %2, i32 noundef %3, i32 noundef %4, ptr noundef %6, i32 noundef 0)
  %.not = icmp eq i32 %7, 0
  %8 = icmp eq i32 %1, 0
  %or.cond = or i1 %8, %.not
  br i1 %or.cond, label %._crit_edge, label %9

9:                                                ; preds = %5
  %10 = sext i32 %1 to i64
  %11 = getelementptr i8, ptr %0, i64 %10
  %12 = getelementptr i8, ptr %11, i64 -1
  %13 = load i8, ptr %12, align 1, !tbaa !9
  %.not18 = icmp eq i8 %13, 42
  br i1 %.not18, label %14, label %._crit_edge

14:                                               ; preds = %9
  %15 = icmp sgt i32 %1, 1
  br i1 %15, label %.lr.ph.preheader, label %._crit_edge

.lr.ph.preheader:                                 ; preds = %14
  %16 = add nsw i32 %1, -2
  %17 = add nsw i32 %1, -1
  br label %.lr.ph

.lr.ph:                                           ; preds = %.lr.ph.preheader, %22
  %.020 = phi i32 [ %24, %22 ], [ %16, %.lr.ph.preheader ]
  %.01519 = phi i32 [ %23, %22 ], [ 0, %.lr.ph.preheader ]
  %18 = zext nneg i32 %.020 to i64
  %19 = getelementptr inbounds nuw i8, ptr %0, i64 %18
  %20 = load i8, ptr %19, align 1, !tbaa !9
  %21 = icmp eq i8 %20, 92
  br i1 %21, label %22, label %._crit_edge.loopexit

22:                                               ; preds = %.lr.ph
  %23 = add nuw i32 %.01519, 1
  %24 = add nsw i32 %.020, -1
  %exitcond.not = icmp eq i32 %23, %17
  br i1 %exitcond.not, label %._crit_edge.loopexit, label %.lr.ph, !llvm.loop !10

._crit_edge.loopexit:                             ; preds = %.lr.ph, %22
  %.015.lcssa.ph = phi i32 [ %17, %22 ], [ %.01519, %.lr.ph ]
  %25 = and i32 %.015.lcssa.ph, 1
  %26 = xor i32 %25, 1
  br label %._crit_edge

._crit_edge:                                      ; preds = %14, %._crit_edge.loopexit, %9, %5
  %.016 = phi i32 [ 0, %5 ], [ 0, %9 ], [ 1, %14 ], [ %26, %._crit_edge.loopexit ]
  call void @llvm.lifetime.end.p0(i64 4, ptr nonnull %6) #29
  ret i32 %.016
}